target datalayout = "e-m:e-p270:32:32-p271:32:32-p272:64:64-i64:64-i128:128-f80:128-n8:16:32:64-S128"
target triple = "x86_64-pc-linux-gnu"

%struct._packet_info = type { ptr, ptr, i32, i32, %struct.nstime_t, %struct.nstime_t, %struct.nstime_t, i8, ptr, ptr, ptr, ptr, %struct._address, %struct._address, %struct._address, %struct._address, %struct._address, %struct._address, i32, ptr, i8, [3 x i8], %struct.anon, i32, i32, i32, i32, ptr, i8, ptr, ptr, i16, i16, i32, i32, i16, i32, i32, ptr, ptr, ptr, i8, i8, i16, i16, i16, i32, i16, i16, ptr, ptr, ptr, ptr, ptr, i32, i32 }
%struct.nstime_t = type { i64, i32 }
%struct._address = type { i32, i32, ptr, ptr }
%struct.anon = type { i8, [3 x i8] }
%struct.erf_mc_phdr = type { %struct.erf_phdr, [16 x %struct.erf_ehdr], %union.anon.1 }
%struct.erf_phdr = type { i64, i8, i8, i16, i16, i16 }
%struct.erf_ehdr = type { i64 }
%union.anon.1 = type { i32 }

; Function Attrs: nounwind null_pointer_is_valid sspstrong uwtable
define hidden ptr @erf_get_ehdr(ptr noundef %0, i8 noundef zeroext %1, ptr noundef %2) #0 {
  %4 = alloca ptr, align 8
  %5 = alloca ptr, align 8
  %6 = alloca i8, align 1
  %7 = alloca ptr, align 8
  %8 = alloca i8, align 1
  %9 = alloca i8, align 1
  %10 = alloca i32, align 4
  %11 = alloca i32, align 4
  %12 = alloca i32, align 4
  store ptr %0, ptr %5, align 8
  store i8 %1, ptr %6, align 1
  store ptr %2, ptr %7, align 8
  call void @llvm.lifetime.start.p0(i64 1, ptr %8) #14
  call void @llvm.lifetime.start.p0(i64 1, ptr %9) #14
  call void @llvm.lifetime.start.p0(i64 4, ptr %10) #14
  call void @llvm.lifetime.start.p0(i64 4, ptr %11) #14
  %13 = load ptr, ptr %7, align 8
  %14 = icmp ne ptr %13, null
  br i1 %14, label %15, label %19

15:                                               ; preds = %3
  %16 = load ptr, ptr %7, align 8
  %17 = load i32, ptr %16, align 4
  %18 = add i32 %17, 1
  br label %20

19:                                               ; preds = %3
  br label %20

20:                                               ; preds = %19, %15
  %21 = phi i32 [ %18, %15 ], [ 0, %19 ]
  store i32 %21, ptr %11, align 4
  %22 = load ptr, ptr %5, align 8
  %23 = icmp ne ptr %22, null
  br i1 %23, label %25, label %24

24:                                               ; preds = %20
  store ptr null, ptr %4, align 8
  store i32 1, ptr %12, align 4
  br label %87

25:                                               ; preds = %20
  %26 = load ptr, ptr %5, align 8
  %27 = getelementptr inbounds nuw %struct._packet_info, ptr %26, i32 0, i32 9
  %28 = load ptr, ptr %27, align 8
  %29 = getelementptr inbounds nuw %struct.erf_mc_phdr, ptr %28, i32 0, i32 0
  %30 = getelementptr inbounds nuw %struct.erf_phdr, ptr %29, i32 0, i32 1
  %31 = load i8, ptr %30, align 8
  %32 = zext i8 %31 to i32
  %33 = and i32 %32, 128
  %34 = trunc i32 %33 to i8
  store i8 %34, ptr %9, align 1
  store i32 16, ptr %10, align 4
  br label %35

35:                                               ; preds = %79, %25
  %36 = load i8, ptr %9, align 1
  %37 = zext i8 %36 to i32
  %38 = icmp ne i32 %37, 0
  br i1 %38, label %39, label %43

39:                                               ; preds = %35
  %40 = load i32, ptr %11, align 4
  %41 = load i32, ptr %10, align 4
  %42 = icmp slt i32 %40, %41
  br label %43

43:                                               ; preds = %39, %35
  %44 = phi i1 [ false, %35 ], [ %42, %39 ]
  br i1 %44, label %45, label %86

45:                                               ; preds = %43
  %46 = load ptr, ptr %5, align 8
  %47 = getelementptr inbounds nuw %struct._packet_info, ptr %46, i32 0, i32 9
  %48 = load ptr, ptr %47, align 8
  %49 = getelementptr inbounds nuw %struct.erf_mc_phdr, ptr %48, i32 0, i32 1
  %50 = load i32, ptr %11, align 4
  %51 = sext i32 %50 to i64
  %52 = getelementptr [16 x %struct.erf_ehdr], ptr %49, i64 0, i64 %51
  %53 = getelementptr inbounds nuw %struct.erf_ehdr, ptr %52, i32 0, i32 0
  %54 = load i64, ptr %53, align 8
  %55 = lshr i64 %54, 56
  %56 = trunc i64 %55 to i8
  store i8 %56, ptr %8, align 1
  %57 = load i8, ptr %8, align 1
  %58 = zext i8 %57 to i32
  %59 = and i32 %58, 127
  %60 = load i8, ptr %6, align 1
  %61 = zext i8 %60 to i32
  %62 = and i32 %61, 127
  %63 = icmp eq i32 %59, %62
  br i1 %63, label %64, label %79

64:                                               ; preds = %45
  %65 = load ptr, ptr %7, align 8
  %66 = icmp ne ptr %65, null
  br i1 %66, label %67, label %70

67:                                               ; preds = %64
  %68 = load i32, ptr %11, align 4
  %69 = load ptr, ptr %7, align 8
  store i32 %68, ptr %69, align 4
  br label %70

70:                                               ; preds = %67, %64
  %71 = load ptr, ptr %5, align 8
  %72 = getelementptr inbounds nuw %struct._packet_info, ptr %71, i32 0, i32 9
  %73 = load ptr, ptr %72, align 8
  %74 = getelementptr inbounds nuw %struct.erf_mc_phdr, ptr %73, i32 0, i32 1
  %75 = load i32, ptr %11, align 4
  %76 = sext i32 %75 to i64
  %77 = getelementptr [16 x %struct.erf_ehdr], ptr %74, i64 0, i64 %76
  %78 = getelementptr inbounds nuw %struct.erf_ehdr, ptr %77, i32 0, i32 0
  store ptr %78, ptr %4, align 8
  store i32 1, ptr %12, align 4
  br label %87

79:                                               ; preds = %45
  %80 = load i8, ptr %8, align 1
  %81 = zext i8 %80 to i32
  %82 = and i32 %81, 128
  %83 = trunc i32 %82 to i8
  store i8 %83, ptr %9, align 1
  %84 = load i32, ptr %11, align 4
  %85 = add i32 %84, 1
  store i32 %85, ptr %11, align 4
  br label %35, !llvm.loop !6

86:                                               ; preds = %43
  store ptr null, ptr %4, align 8
  store i32 1, ptr %12, align 4
  br label %87

87:                                               ; preds = %86, %70, %24
  call void @llvm.lifetime.end.p0(i64 4, ptr %11) #14
  call void @llvm.lifetime.end.p0(i64 4, ptr %10) #14
  call void @llvm.lifetime.end.p0(i64 1, ptr %9) #14
  call void @llvm.lifetime.end.p0(i64 1, ptr %8) #14
  %88 = load ptr, ptr %4, align 8
  ret ptr %88
}