; Function Attrs: nofree norecurse nosync nounwind null_pointer_is_valid sspstrong memory(read, argmem: readwrite, inaccessiblemem: none) uwtable
define hidden ptr @erf_get_ehdr(ptr noundef readonly captures(address_is_null) %0, i8 noundef zeroext %1, ptr noundef captures(address_is_null) %2) local_unnamed_addr #0 {
  %.not = icmp eq ptr %2, null
  br i1 %.not, label %7, label %4

4:                                                ; preds = %3
  %5 = load i32, ptr %2, align 4
  %6 = add i32 %5, 1
  br label %7

7:                                                ; preds = %3, %4
  %8 = phi i32 [ %6, %4 ], [ 0, %3 ]
  %.not22 = icmp eq ptr %0, null
  br i1 %.not22, label %.loopexit, label %9

9:                                                ; preds = %7
  %10 = getelementptr inbounds nuw i8, ptr %0, i64 88
  %11 = load ptr, ptr %10, align 8
  %12 = getelementptr inbounds nuw i8, ptr %11, i64 8
  %13 = load i8, ptr %12, align 8
  %14 = icmp slt i8 %13, 0
  %15 = icmp slt i32 %8, 16
  %16 = select i1 %14, i1 %15, i1 false
  br i1 %16, label %.lr.ph, label %.loopexit

.lr.ph:                                           ; preds = %9
  %17 = getelementptr inbounds nuw i8, ptr %11, i64 16
  %18 = and i8 %1, 127
  %19 = zext nneg i8 %18 to i32
  %20 = sext i32 %8 to i64
  br label %21

21:                                               ; preds = %.lr.ph, %35
  %indvars.iv = phi i64 [ %20, %.lr.ph ], [ %indvars.iv.next, %35 ]
  %22 = getelementptr [16 x %struct.erf_ehdr], ptr %17, i64 0, i64 %indvars.iv
  %23 = load i64, ptr %22, align 8
  %24 = lshr i64 %23, 56
  %25 = trunc nuw nsw i64 %24 to i32
  %26 = and i32 %25, 127
  %27 = icmp eq i32 %26, %19
  br i1 %27, label %28, label %35

28:                                               ; preds = %21
  br i1 %.not, label %31, label %29

29:                                               ; preds = %28
  %30 = trunc nsw i64 %indvars.iv to i32
  store i32 %30, ptr %2, align 4
  %.pre = load ptr, ptr %10, align 8
  br label %31

31:                                               ; preds = %29, %28
  %32 = phi ptr [ %.pre, %29 ], [ %11, %28 ]
  %33 = getelementptr inbounds nuw i8, ptr %32, i64 16
  %34 = getelementptr [16 x %struct.erf_ehdr], ptr %33, i64 0, i64 %indvars.iv
  br label %.loopexit

35:                                               ; preds = %21
  %indvars.iv.next = add nsw i64 %indvars.iv, 1
  %36 = icmp slt i64 %23, 0
  %37 = icmp slt i64 %indvars.iv, 15
  %38 = and i1 %36, %37
  br i1 %38, label %21, label %.loopexit, !llvm.loop !6

.loopexit:                                        ; preds = %35, %9, %7, %31
  %.018 = phi ptr [ %34, %31 ], [ null, %7 ], [ null, %9 ], [ null, %35 ]
  ret ptr %.018
}